target datalayout = "e-m:e-p270:32:32-p271:32:32-p272:64:64-i64:64-i128:128-f80:128-n8:16:32:64-S128"
target triple = "x86_64-pc-linux-gnu"

; Function Attrs: nounwind uwtable
define internal ptr @MallocFunc(ptr noundef %0, i64 noundef %1) #0 {
  %3 = alloca ptr, align 8
  %4 = alloca ptr, align 8
  %5 = alloca i64, align 8
  store ptr %0, ptr %4, align 8, !tbaa !17
  store i64 %1, ptr %5, align 8, !tbaa !9
  %6 = load i64, ptr %5, align 8, !tbaa !9
  %7 = load i64, ptr %5, align 8, !tbaa !9
  %8 = icmp ne i64 %6, %7
  br i1 %8, label %9, label %10

9:                                                ; preds = %2
  store ptr null, ptr %3, align 8
  br label %18

10:                                               ; preds = %2
  %11 = load i64, ptr %5, align 8, !tbaa !9
  %12 = call i32 @ImgIoUtilCheckSizeArgumentsOverflow(i64 noundef %11, i64 noundef 1)
  %13 = icmp ne i32 %12, 0
  br i1 %13, label %15, label %14

14:                                               ; preds = %10
  store ptr null, ptr %3, align 8
  br label %18

15:                                               ; preds = %10
  %16 = load i64, ptr %5, align 8, !tbaa !9
  %17 = call noalias ptr @malloc(i64 noundef %16) #13
  store ptr %17, ptr %3, align 8
  br label %18

18:                                               ; preds = %15, %14, %9
  %19 = load ptr, ptr %3, align 8
  ret ptr %19
}