; Function Attrs: nounwind uwtable
define internal noalias noundef ptr @MallocFunc(ptr readnone captures(none) %0, i64 noundef %1) #0 {
  %3 = tail call i32 @ImgIoUtilCheckSizeArgumentsOverflow(i64 noundef %1, i64 noundef 1) #15
  %.not = icmp eq i32 %3, 0
  br i1 %.not, label %6, label %4

4:                                                ; preds = %2
  %5 = tail call noalias ptr @malloc(i64 noundef %1) #17
  br label %6

6:                                                ; preds = %2, %4
  %.0 = phi ptr [ %5, %4 ], [ null, %2 ]
  ret ptr %.0
}